; Function Attrs: mustprogress uwtable
define dso_local noundef zeroext i1 @_ZN17cmQtAutoGenerator5InfoT12GetJsonArrayERSt6vectorINSt7__cxx1112basic_stringIcSt11char_traitsIcESaIcEEESaIS7_EERKN4Json5ValueE(ptr noundef nonnull align 8 dereferenceable(24) %0, ptr noundef nonnull align 8 dereferenceable(40) %1) local_unnamed_addr #3 align 2 personality ptr @__gxx_personality_v0 {
  %3 = alloca %"class.std::__cxx11::basic_string", align 8
  %4 = tail call noundef i32 @_ZNK4Json5Value4sizeEv(ptr noundef nonnull align 8 dereferenceable(40) %1)
  %5 = icmp eq i32 %4, 0
  br i1 %5, label %34, label %6

6:                                                ; preds = %2
  %7 = getelementptr inbounds i8, ptr %0, i64 8
  %8 = load ptr, ptr %7, align 8
  %9 = load ptr, ptr %0, align 8
  %10 = ptrtoint ptr %8 to i64
  %11 = ptrtoint ptr %9 to i64
  %12 = sub i64 %10, %11
  %13 = ashr exact i64 %12, 5
  %14 = zext i32 %4 to i64
  %15 = add nsw i64 %13, %14
  tail call void @_ZNSt6vectorINSt7__cxx1112basic_stringIcSt11char_traitsIcESaIcEEESaIS5_EE7reserveEm(ptr noundef nonnull align 8 dereferenceable(24) %0, i64 noundef %15)
  %16 = getelementptr inbounds i8, ptr %0, i64 16
  br label %17

17:                                               ; preds = %6, %29
  %.01621 = phi i8 [ 0, %6 ], [ %.1, %29 ]
  %.01720 = phi i32 [ 0, %6 ], [ %30, %29 ]
  %18 = call noundef nonnull align 8 dereferenceable(40) ptr @_ZNK4Json5ValueixEj(ptr noundef nonnull align 8 dereferenceable(40) %1, i32 noundef %.01720)
  %19 = call noundef zeroext i1 @_ZNK4Json5Value8isStringEv(ptr noundef nonnull align 8 dereferenceable(40) %18)
  br i1 %19, label %20, label %29

20:                                               ; preds = %17
  call void @_ZNK4Json5Value8asStringB5cxx11Ev(ptr dead_on_unwind nonnull writable sret(%"class.std::__cxx11::basic_string") align 8 %3, ptr noundef nonnull align 8 dereferenceable(40) %18)
  %21 = load ptr, ptr %7, align 8
  %22 = load ptr, ptr %16, align 8
  %.not.i = icmp eq ptr %21, %22
  br i1 %.not.i, label %26, label %23

23:                                               ; preds = %20
  call void @_ZNSt7__cxx1112basic_stringIcSt11char_traitsIcESaIcEEC1EOS4_(ptr noundef nonnull align 8 dereferenceable(32) %21, ptr noundef nonnull align 8 dereferenceable(32) %3) #21
  %24 = load ptr, ptr %7, align 8
  %25 = getelementptr inbounds i8, ptr %24, i64 32
  store ptr %25, ptr %7, align 8
  br label %_ZNSt6vectorINSt7__cxx1112basic_stringIcSt11char_traitsIcESaIcEEESaIS5_EE12emplace_backIJS5_EEERS5_DpOT_.exit

26:                                               ; preds = %20
  invoke void @_ZNSt6vectorINSt7__cxx1112basic_stringIcSt11char_traitsIcESaIcEEESaIS5_EE17_M_realloc_insertIJS5_EEEvN9__gnu_cxx17__normal_iteratorIPS5_S7_EEDpOT_(ptr noundef nonnull align 8 dereferenceable(24) %0, ptr %21, ptr noundef nonnull align 8 dereferenceable(32) %3)
          to label %_ZNSt6vectorINSt7__cxx1112basic_stringIcSt11char_traitsIcESaIcEEESaIS5_EE12emplace_backIJS5_EEERS5_DpOT_.exit unwind label %27

_ZNSt6vectorINSt7__cxx1112basic_stringIcSt11char_traitsIcESaIcEEESaIS5_EE12emplace_backIJS5_EEERS5_DpOT_.exit: ; preds = %26, %23
  call void @_ZNSt7__cxx1112basic_stringIcSt11char_traitsIcESaIcEED1Ev(ptr noundef nonnull align 8 dereferenceable(32) %3) #21
  br label %29

27:                                               ; preds = %26
  %28 = landingpad { ptr, i32 }
          cleanup
  call void @_ZNSt7__cxx1112basic_stringIcSt11char_traitsIcESaIcEED1Ev(ptr noundef nonnull align 8 dereferenceable(32) %3) #21
  resume { ptr, i32 } %28

29:                                               ; preds = %17, %_ZNSt6vectorINSt7__cxx1112basic_stringIcSt11char_traitsIcESaIcEEESaIS5_EE12emplace_backIJS5_EEERS5_DpOT_.exit
  %.1 = phi i8 [ 1, %_ZNSt6vectorINSt7__cxx1112basic_stringIcSt11char_traitsIcESaIcEEESaIS5_EE12emplace_backIJS5_EEERS5_DpOT_.exit ], [ %.01621, %17 ]
  %30 = add nuw i32 %.01720, 1
  %.not = icmp eq i32 %30, %4
  br i1 %.not, label %31, label %17, !llvm.loop !150

31:                                               ; preds = %29
  %32 = and i8 %.1, 1
  %33 = icmp ne i8 %32, 0
  br label %34

34:                                               ; preds = %2, %31
  %.0 = phi i1 [ %33, %31 ], [ false, %2 ]
  ret i1 %.0
}